target datalayout = "e-m:e-p270:32:32-p271:32:32-p272:64:64-i64:64-i128:128-f80:128-n8:16:32:64-S128"
target triple = "x86_64-pc-linux-gnu"

%struct.grpc_arg_pointer_vtable = type { ptr, ptr, ptr }
%struct.grpc_arg = type { i32, ptr, %"union.(anonymous struct)::grpc_arg_value" }
%"union.(anonymous struct)::grpc_arg_value" = type { %"struct.(anonymous struct)::grpc_arg_value::grpc_arg_pointer" }
%"struct.(anonymous struct)::grpc_arg_value::grpc_arg_pointer" = type { ptr, ptr }
%struct.grpc_channel_args = type { i64, ptr }

; Function Attrs: mustprogress uwtable
define void @_Z25grpc_channel_args_destroyP17grpc_channel_args(ptr noundef %0) #5 {
  %2 = alloca ptr, align 8
  %3 = alloca i64, align 8
  %4 = alloca i32, align 4
  store ptr %0, ptr %2, align 8, !tbaa !3
  call void @llvm.lifetime.start.p0(i64 8, ptr %3) #3
  %5 = load ptr, ptr %2, align 8, !tbaa !3
  %6 = icmp ne ptr %5, null
  br i1 %6, label %8, label %7

7:                                                ; preds = %1
  store i32 1, ptr %4, align 4
  br label %66

8:                                                ; preds = %1
  store i64 0, ptr %3, align 8, !tbaa !23
  br label %9

9:                                                ; preds = %58, %8
  %10 = load i64, ptr %3, align 8, !tbaa !23
  %11 = load ptr, ptr %2, align 8, !tbaa !3
  %12 = getelementptr inbounds nuw %struct.grpc_channel_args, ptr %11, i32 0, i32 0
  %13 = load i64, ptr %12, align 8, !tbaa !48
  %14 = icmp ult i64 %10, %13
  br i1 %14, label %15, label %61

15:                                               ; preds = %9
  %16 = load ptr, ptr %2, align 8, !tbaa !3
  %17 = getelementptr inbounds nuw %struct.grpc_channel_args, ptr %16, i32 0, i32 1
  %18 = load ptr, ptr %17, align 8, !tbaa !50
  %19 = load i64, ptr %3, align 8, !tbaa !23
  %20 = getelementptr inbounds nuw %struct.grpc_arg, ptr %18, i64 %19
  %21 = getelementptr inbounds nuw %struct.grpc_arg, ptr %20, i32 0, i32 0
  %22 = load i32, ptr %21, align 8, !tbaa !42
  switch i32 %22, label %50 [
    i32 0, label %23
    i32 1, label %50
    i32 2, label %31
  ]

23:                                               ; preds = %15
  %24 = load ptr, ptr %2, align 8, !tbaa !3
  %25 = getelementptr inbounds nuw %struct.grpc_channel_args, ptr %24, i32 0, i32 1
  %26 = load ptr, ptr %25, align 8, !tbaa !50
  %27 = load i64, ptr %3, align 8, !tbaa !23
  %28 = getelementptr inbounds nuw %struct.grpc_arg, ptr %26, i64 %27
  %29 = getelementptr inbounds nuw %struct.grpc_arg, ptr %28, i32 0, i32 2
  %30 = load ptr, ptr %29, align 8, !tbaa !46
  call void @gpr_free(ptr noundef %30)
  br label %50

31:                                               ; preds = %15
  %32 = load ptr, ptr %2, align 8, !tbaa !3
  %33 = getelementptr inbounds nuw %struct.grpc_channel_args, ptr %32, i32 0, i32 1
  %34 = load ptr, ptr %33, align 8, !tbaa !50
  %35 = load i64, ptr %3, align 8, !tbaa !23
  %36 = getelementptr inbounds nuw %struct.grpc_arg, ptr %34, i64 %35
  %37 = getelementptr inbounds nuw %struct.grpc_arg, ptr %36, i32 0, i32 2
  %38 = getelementptr inbounds nuw %"struct.(anonymous struct)::grpc_arg_value::grpc_arg_pointer", ptr %37, i32 0, i32 1
  %39 = load ptr, ptr %38, align 8, !tbaa !46
  %40 = getelementptr inbounds nuw %struct.grpc_arg_pointer_vtable, ptr %39, i32 0, i32 1
  %41 = load ptr, ptr %40, align 8, !tbaa !47
  %42 = load ptr, ptr %2, align 8, !tbaa !3
  %43 = getelementptr inbounds nuw %struct.grpc_channel_args, ptr %42, i32 0, i32 1
  %44 = load ptr, ptr %43, align 8, !tbaa !50
  %45 = load i64, ptr %3, align 8, !tbaa !23
  %46 = getelementptr inbounds nuw %struct.grpc_arg, ptr %44, i64 %45
  %47 = getelementptr inbounds nuw %struct.grpc_arg, ptr %46, i32 0, i32 2
  %48 = getelementptr inbounds nuw %"struct.(anonymous struct)::grpc_arg_value::grpc_arg_pointer", ptr %47, i32 0, i32 0
  %49 = load ptr, ptr %48, align 8, !tbaa !46
  call void %41(ptr noundef %49)
  br label %50

50:                                               ; preds = %15, %31, %15, %23
  %51 = load ptr, ptr %2, align 8, !tbaa !3
  %52 = getelementptr inbounds nuw %struct.grpc_channel_args, ptr %51, i32 0, i32 1
  %53 = load ptr, ptr %52, align 8, !tbaa !50
  %54 = load i64, ptr %3, align 8, !tbaa !23
  %55 = getelementptr inbounds nuw %struct.grpc_arg, ptr %53, i64 %54
  %56 = getelementptr inbounds nuw %struct.grpc_arg, ptr %55, i32 0, i32 1
  %57 = load ptr, ptr %56, align 8, !tbaa !45
  call void @gpr_free(ptr noundef %57)
  br label %58

58:                                               ; preds = %50
  %59 = load i64, ptr %3, align 8, !tbaa !23
  %60 = add i64 %59, 1
  store i64 %60, ptr %3, align 8, !tbaa !23
  br label %9, !llvm.loop !139

61:                                               ; preds = %9
  %62 = load ptr, ptr %2, align 8, !tbaa !3
  %63 = getelementptr inbounds nuw %struct.grpc_channel_args, ptr %62, i32 0, i32 1
  %64 = load ptr, ptr %63, align 8, !tbaa !50
  call void @gpr_free(ptr noundef %64)
  %65 = load ptr, ptr %2, align 8, !tbaa !3
  call void @gpr_free(ptr noundef %65)
  store i32 0, ptr %4, align 4
  br label %66

66:                                               ; preds = %61, %7
  call void @llvm.lifetime.end.p0(i64 8, ptr %3) #3
  %67 = load i32, ptr %4, align 4
  switch i32 %67, label %69 [
    i32 0, label %68
    i32 1, label %68
  ]

68:                                               ; preds = %66, %66
  ret void

69:                                               ; preds = %66
  unreachable
}

; Function Attrs: inlinehint mustprogress uwtable
define linkonce_odr void @_Z25grpc_channel_args_destroyPK17grpc_channel_args(ptr noundef %0) #4 comdat {
  %2 = alloca ptr, align 8
  store ptr %0, ptr %2, align 8, !tbaa !3
  %3 = load ptr, ptr %2, align 8, !tbaa !3
  call void @_Z25grpc_channel_args_destroyP17grpc_channel_args(ptr noundef %3)
  ret void
}

; Function Attrs: mustprogress uwtable
define void @_ZNK9grpc_core11ChannelArgs18ChannelArgsDeleterclEPK17grpc_channel_args(ptr noundef nonnull align 1 dereferenceable(1) %0, ptr noundef %1) #5 align 2 {
  %3 = alloca ptr, align 8
  %4 = alloca ptr, align 8
  store ptr %0, ptr %3, align 8, !tbaa !123
  store ptr %1, ptr %4, align 8, !tbaa !3
  %5 = load ptr, ptr %4, align 8, !tbaa !3
  call void @_Z25grpc_channel_args_destroyPK17grpc_channel_args(ptr noundef %5)
  ret void
}