; Function Attrs: mustprogress uwtable
define void @_ZNK9grpc_core11ChannelArgs18ChannelArgsDeleterclEPK17grpc_channel_args(ptr noundef nonnull readnone align 1 captures(none) dereferenceable(1) %0, ptr noundef %1) local_unnamed_addr #9 align 2 {
  %.not.i.i = icmp eq ptr %1, null
  br i1 %.not.i.i, label %_Z25grpc_channel_args_destroyPK17grpc_channel_args.exit, label %.preheader.i.i

.preheader.i.i:                                   ; preds = %2
  %3 = load i64, ptr %1, align 8, !tbaa !51
  %.not17.i.i = icmp eq i64 %3, 0
  br i1 %.not17.i.i, label %._crit_edge.i.i, label %.lr.ph.i.i

.lr.ph.i.i:                                       ; preds = %.preheader.i.i
  %4 = getelementptr inbounds nuw i8, ptr %1, i64 8
  br label %5

5:                                                ; preds = %19, %.lr.ph.i.i
  %.016.i.i = phi i64 [ 0, %.lr.ph.i.i ], [ %23, %19 ]
  %6 = load ptr, ptr %4, align 8, !tbaa !53
  %7 = getelementptr inbounds nuw %struct.grpc_arg, ptr %6, i64 %.016.i.i
  %8 = load i32, ptr %7, align 8, !tbaa !37
  switch i32 %8, label %19 [
    i32 0, label %9
    i32 2, label %12
  ]

9:                                                ; preds = %5
  %10 = getelementptr inbounds nuw i8, ptr %7, i64 16
  %11 = load ptr, ptr %10, align 8, !tbaa !41
  tail call void @gpr_free(ptr noundef %11)
  br label %19

12:                                               ; preds = %5
  %13 = getelementptr inbounds nuw i8, ptr %7, i64 16
  %14 = getelementptr inbounds nuw i8, ptr %7, i64 24
  %15 = load ptr, ptr %14, align 8, !tbaa !41
  %16 = getelementptr inbounds nuw i8, ptr %15, i64 8
  %17 = load ptr, ptr %16, align 8, !tbaa !45
  %18 = load ptr, ptr %13, align 8, !tbaa !41
  tail call void %17(ptr noundef %18)
  br label %19

19:                                               ; preds = %12, %9, %5
  %20 = load ptr, ptr %4, align 8, !tbaa !53
  %21 = getelementptr inbounds nuw %struct.grpc_arg, ptr %20, i64 %.016.i.i, i32 1
  %22 = load ptr, ptr %21, align 8, !tbaa !40
  tail call void @gpr_free(ptr noundef %22)
  %23 = add nuw i64 %.016.i.i, 1
  %24 = load i64, ptr %1, align 8, !tbaa !51
  %25 = icmp ult i64 %23, %24
  br i1 %25, label %5, label %._crit_edge.i.i, !llvm.loop !163

._crit_edge.i.i:                                  ; preds = %19, %.preheader.i.i
  %26 = getelementptr inbounds nuw i8, ptr %1, i64 8
  %27 = load ptr, ptr %26, align 8, !tbaa !53
  tail call void @gpr_free(ptr noundef %27)
  tail call void @gpr_free(ptr noundef nonnull %1)
  br label %_Z25grpc_channel_args_destroyPK17grpc_channel_args.exit

_Z25grpc_channel_args_destroyPK17grpc_channel_args.exit: ; preds = %2, %._crit_edge.i.i
  ret void
}